; Function Attrs: nofree null_pointer_is_valid sspstrong uwtable
define internal fastcc range(i32 -1, 1) i32 @gz_skipzstr(ptr noundef captures(none) %0) unnamed_addr #12 {
  %2 = getelementptr inbounds nuw i8, ptr %0, i64 48
  %3 = getelementptr inbounds nuw i8, ptr %0, i64 132
  %4 = getelementptr inbounds nuw i8, ptr %0, i64 80
  %5 = getelementptr inbounds nuw i8, ptr %0, i64 32
  %6 = getelementptr inbounds nuw i8, ptr %0, i64 24
  %7 = getelementptr inbounds nuw i8, ptr %0, i64 40
  %8 = getelementptr inbounds nuw i8, ptr %0, i64 8
  %.pre = load i32, ptr %2, align 8
  br label %9

9:                                                ; preds = %fill_in_buffer.exit.thread12, %1
  %.pr = phi i32 [ %43, %fill_in_buffer.exit.thread12 ], [ %.pre, %1 ]
  %10 = icmp eq i32 %.pr, 0
  br i1 %10, label %11, label %fill_in_buffer.exit.thread12

11:                                               ; preds = %9
  %12 = load i32, ptr %3, align 4
  %.not.i = icmp eq i32 %12, 0
  br i1 %.not.i, label %13, label %.loopexit

13:                                               ; preds = %11
  %14 = load i8, ptr %4, align 8, !range !9, !noundef !10
  %15 = trunc nuw i8 %14 to i1
  br i1 %15, label %fill_in_buffer.exit.fill_in_buffer.exit.thread.loopexit_crit_edge, label %16

16:                                               ; preds = %13
  %17 = load i32, ptr %6, align 8
  %18 = load ptr, ptr %7, align 8
  %19 = load ptr, ptr %5, align 8
  %20 = ptrtoint ptr %18 to i64
  %21 = ptrtoint ptr %19 to i64
  %.neg.i.i = sub i64 %21, %20
  %.neg25.i.i = trunc i64 %.neg.i.i to i32
  %22 = add i32 %17, %.neg25.i.i
  %23 = icmp eq i32 %22, 0
  br i1 %23, label %24, label %25

24:                                               ; preds = %16
  store ptr %19, ptr %7, align 8
  store i32 0, ptr %2, align 8
  br label %25

25:                                               ; preds = %24, %16
  %.022.i.i = phi i32 [ %17, %24 ], [ %22, %16 ]
  %.021.i.i = phi ptr [ %19, %24 ], [ %18, %16 ]
  %26 = load i32, ptr %0, align 8
  %27 = zext i32 %.022.i.i to i64
  %28 = tail call i64 @read(i32 noundef %26, ptr noundef %.021.i.i, i64 noundef %27)
  %29 = icmp slt i64 %28, 0
  br i1 %29, label %buf_read.exit.thread.i, label %33

buf_read.exit.thread.i:                           ; preds = %25
  %30 = tail call ptr @__errno_location() #23
  %31 = load i32, ptr %30, align 4
  store i32 %31, ptr %3, align 4
  %32 = getelementptr inbounds nuw i8, ptr %0, i64 136
  store ptr null, ptr %32, align 8
  br label %fill_in_buffer.exit.thread

33:                                               ; preds = %25
  %34 = icmp eq i64 %28, 0
  br i1 %34, label %35, label %fill_in_buffer.exit

35:                                               ; preds = %33
  store i8 1, ptr %4, align 8
  br label %fill_in_buffer.exit

fill_in_buffer.exit:                              ; preds = %33, %35
  %36 = load i64, ptr %8, align 8
  %37 = add i64 %36, %28
  store i64 %37, ptr %8, align 8
  %38 = trunc i64 %28 to i32
  %39 = load i32, ptr %2, align 8
  %40 = add i32 %39, %38
  store i32 %40, ptr %2, align 8
  %41 = icmp eq i32 %40, 0
  br i1 %41, label %fill_in_buffer.exit.fill_in_buffer.exit.thread.loopexit_crit_edge, label %fill_in_buffer.exit.thread12

fill_in_buffer.exit.fill_in_buffer.exit.thread.loopexit_crit_edge: ; preds = %13, %fill_in_buffer.exit
  %.pre15.pre = load i32, ptr %3, align 4
  br label %fill_in_buffer.exit.thread

fill_in_buffer.exit.thread12:                     ; preds = %9, %fill_in_buffer.exit
  %42 = phi i32 [ %40, %fill_in_buffer.exit ], [ %.pr, %9 ]
  %43 = add i32 %42, -1
  store i32 %43, ptr %2, align 8
  %44 = load ptr, ptr %7, align 8
  %45 = getelementptr i8, ptr %44, i64 1
  store ptr %45, ptr %7, align 8
  %46 = load i8, ptr %44, align 1
  %.not = icmp eq i8 %46, 0
  br i1 %.not, label %.loopexit, label %9, !llvm.loop !46

fill_in_buffer.exit.thread:                       ; preds = %fill_in_buffer.exit.fill_in_buffer.exit.thread.loopexit_crit_edge, %buf_read.exit.thread.i
  %47 = phi i32 [ %31, %buf_read.exit.thread.i ], [ %.pre15.pre, %fill_in_buffer.exit.fill_in_buffer.exit.thread.loopexit_crit_edge ]
  %48 = icmp eq i32 %47, 0
  br i1 %48, label %49, label %.loopexit

49:                                               ; preds = %fill_in_buffer.exit.thread
  store i32 -12, ptr %3, align 4
  %50 = getelementptr inbounds nuw i8, ptr %0, i64 136
  store ptr null, ptr %50, align 8
  br label %.loopexit

.loopexit:                                        ; preds = %11, %fill_in_buffer.exit.thread12, %fill_in_buffer.exit.thread, %49
  %.0 = phi i32 [ -1, %49 ], [ -1, %fill_in_buffer.exit.thread ], [ -1, %11 ], [ 0, %fill_in_buffer.exit.thread12 ]
  ret i32 %.0
}